target datalayout = "e-m:e-p270:32:32-p271:32:32-p272:64:64-i64:64-i128:128-f80:128-n8:16:32:64-S128"
target triple = "x86_64-pc-linux-gnu"

; Function Attrs: nounwind ssp uwtable
define internal void @fe25519_mul(ptr noundef %0, ptr noundef %1, ptr noundef %2) #0 {
  %4 = alloca ptr, align 8
  %5 = alloca ptr, align 8
  %6 = alloca ptr, align 8
  %7 = alloca i64, align 8
  %8 = alloca i128, align 16
  %9 = alloca i128, align 16
  %10 = alloca i128, align 16
  %11 = alloca i128, align 16
  %12 = alloca i128, align 16
  %13 = alloca i128, align 16
  %14 = alloca i128, align 16
  %15 = alloca i128, align 16
  %16 = alloca i128, align 16
  %17 = alloca i128, align 16
  %18 = alloca i128, align 16
  %19 = alloca i128, align 16
  %20 = alloca i128, align 16
  %21 = alloca i128, align 16
  %22 = alloca i128, align 16
  %23 = alloca i128, align 16
  %24 = alloca i128, align 16
  %25 = alloca i128, align 16
  %26 = alloca i128, align 16
  %27 = alloca i64, align 8
  %28 = alloca i64, align 8
  %29 = alloca i64, align 8
  %30 = alloca i64, align 8
  %31 = alloca i64, align 8
  %32 = alloca i64, align 8
  store ptr %0, ptr %4, align 8
  store ptr %1, ptr %5, align 8
  store ptr %2, ptr %6, align 8
  call void @llvm.lifetime.start.p0(i64 8, ptr %7) #8
  store i64 2251799813685247, ptr %7, align 8
  call void @llvm.lifetime.start.p0(i64 16, ptr %8) #8
  call void @llvm.lifetime.start.p0(i64 16, ptr %9) #8
  call void @llvm.lifetime.start.p0(i64 16, ptr %10) #8
  call void @llvm.lifetime.start.p0(i64 16, ptr %11) #8
  call void @llvm.lifetime.start.p0(i64 16, ptr %12) #8
  call void @llvm.lifetime.start.p0(i64 16, ptr %13) #8
  call void @llvm.lifetime.start.p0(i64 16, ptr %14) #8
  call void @llvm.lifetime.start.p0(i64 16, ptr %15) #8
  call void @llvm.lifetime.start.p0(i64 16, ptr %16) #8
  call void @llvm.lifetime.start.p0(i64 16, ptr %17) #8
  call void @llvm.lifetime.start.p0(i64 16, ptr %18) #8
  call void @llvm.lifetime.start.p0(i64 16, ptr %19) #8
  call void @llvm.lifetime.start.p0(i64 16, ptr %20) #8
  call void @llvm.lifetime.start.p0(i64 16, ptr %21) #8
  call void @llvm.lifetime.start.p0(i64 16, ptr %22) #8
  call void @llvm.lifetime.start.p0(i64 16, ptr %23) #8
  call void @llvm.lifetime.start.p0(i64 16, ptr %24) #8
  call void @llvm.lifetime.start.p0(i64 16, ptr %25) #8
  call void @llvm.lifetime.start.p0(i64 16, ptr %26) #8
  call void @llvm.lifetime.start.p0(i64 8, ptr %27) #8
  call void @llvm.lifetime.start.p0(i64 8, ptr %28) #8
  call void @llvm.lifetime.start.p0(i64 8, ptr %29) #8
  call void @llvm.lifetime.start.p0(i64 8, ptr %30) #8
  call void @llvm.lifetime.start.p0(i64 8, ptr %31) #8
  call void @llvm.lifetime.start.p0(i64 8, ptr %32) #8
  %33 = load ptr, ptr %5, align 8
  %34 = getelementptr i64, ptr %33, i64 0
  %35 = load i64, ptr %34, align 8
  %36 = zext i64 %35 to i128
  store i128 %36, ptr %13, align 16
  %37 = load ptr, ptr %5, align 8
  %38 = getelementptr i64, ptr %37, i64 1
  %39 = load i64, ptr %38, align 8
  %40 = zext i64 %39 to i128
  store i128 %40, ptr %14, align 16
  %41 = load ptr, ptr %5, align 8
  %42 = getelementptr i64, ptr %41, i64 2
  %43 = load i64, ptr %42, align 8
  %44 = zext i64 %43 to i128
  store i128 %44, ptr %15, align 16
  %45 = load ptr, ptr %5, align 8
  %46 = getelementptr i64, ptr %45, i64 3
  %47 = load i64, ptr %46, align 8
  %48 = zext i64 %47 to i128
  store i128 %48, ptr %16, align 16
  %49 = load ptr, ptr %5, align 8
  %50 = getelementptr i64, ptr %49, i64 4
  %51 = load i64, ptr %50, align 8
  %52 = zext i64 %51 to i128
  store i128 %52, ptr %17, align 16
  %53 = load ptr, ptr %6, align 8
  %54 = getelementptr i64, ptr %53, i64 0
  %55 = load i64, ptr %54, align 8
  %56 = zext i64 %55 to i128
  store i128 %56, ptr %22, align 16
  %57 = load ptr, ptr %6, align 8
  %58 = getelementptr i64, ptr %57, i64 1
  %59 = load i64, ptr %58, align 8
  %60 = zext i64 %59 to i128
  store i128 %60, ptr %23, align 16
  %61 = load ptr, ptr %6, align 8
  %62 = getelementptr i64, ptr %61, i64 2
  %63 = load i64, ptr %62, align 8
  %64 = zext i64 %63 to i128
  store i128 %64, ptr %24, align 16
  %65 = load ptr, ptr %6, align 8
  %66 = getelementptr i64, ptr %65, i64 3
  %67 = load i64, ptr %66, align 8
  %68 = zext i64 %67 to i128
  store i128 %68, ptr %25, align 16
  %69 = load ptr, ptr %6, align 8
  %70 = getelementptr i64, ptr %69, i64 4
  %71 = load i64, ptr %70, align 8
  %72 = zext i64 %71 to i128
  store i128 %72, ptr %26, align 16
  %73 = load i128, ptr %14, align 16
  %74 = mul i128 19, %73
  store i128 %74, ptr %18, align 16
  %75 = load i128, ptr %15, align 16
  %76 = mul i128 19, %75
  store i128 %76, ptr %19, align 16
  %77 = load i128, ptr %16, align 16
  %78 = mul i128 19, %77
  store i128 %78, ptr %20, align 16
  %79 = load i128, ptr %17, align 16
  %80 = mul i128 19, %79
  store i128 %80, ptr %21, align 16
  %81 = load i128, ptr %13, align 16
  %82 = load i128, ptr %22, align 16
  %83 = mul i128 %81, %82
  %84 = load i128, ptr %18, align 16
  %85 = load i128, ptr %26, align 16
  %86 = mul i128 %84, %85
  %87 = add i128 %83, %86
  %88 = load i128, ptr %19, align 16
  %89 = load i128, ptr %25, align 16
  %90 = mul i128 %88, %89
  %91 = add i128 %87, %90
  %92 = load i128, ptr %20, align 16
  %93 = load i128, ptr %24, align 16
  %94 = mul i128 %92, %93
  %95 = add i128 %91, %94
  %96 = load i128, ptr %21, align 16
  %97 = load i128, ptr %23, align 16
  %98 = mul i128 %96, %97
  %99 = add i128 %95, %98
  store i128 %99, ptr %8, align 16
  %100 = load i128, ptr %13, align 16
  %101 = load i128, ptr %23, align 16
  %102 = mul i128 %100, %101
  %103 = load i128, ptr %14, align 16
  %104 = load i128, ptr %22, align 16
  %105 = mul i128 %103, %104
  %106 = add i128 %102, %105
  %107 = load i128, ptr %19, align 16
  %108 = load i128, ptr %26, align 16
  %109 = mul i128 %107, %108
  %110 = add i128 %106, %109
  %111 = load i128, ptr %20, align 16
  %112 = load i128, ptr %25, align 16
  %113 = mul i128 %111, %112
  %114 = add i128 %110, %113
  %115 = load i128, ptr %21, align 16
  %116 = load i128, ptr %24, align 16
  %117 = mul i128 %115, %116
  %118 = add i128 %114, %117
  store i128 %118, ptr %9, align 16
  %119 = load i128, ptr %13, align 16
  %120 = load i128, ptr %24, align 16
  %121 = mul i128 %119, %120
  %122 = load i128, ptr %14, align 16
  %123 = load i128, ptr %23, align 16
  %124 = mul i128 %122, %123
  %125 = add i128 %121, %124
  %126 = load i128, ptr %15, align 16
  %127 = load i128, ptr %22, align 16
  %128 = mul i128 %126, %127
  %129 = add i128 %125, %128
  %130 = load i128, ptr %20, align 16
  %131 = load i128, ptr %26, align 16
  %132 = mul i128 %130, %131
  %133 = add i128 %129, %132
  %134 = load i128, ptr %21, align 16
  %135 = load i128, ptr %25, align 16
  %136 = mul i128 %134, %135
  %137 = add i128 %133, %136
  store i128 %137, ptr %10, align 16
  %138 = load i128, ptr %13, align 16
  %139 = load i128, ptr %25, align 16
  %140 = mul i128 %138, %139
  %141 = load i128, ptr %14, align 16
  %142 = load i128, ptr %24, align 16
  %143 = mul i128 %141, %142
  %144 = add i128 %140, %143
  %145 = load i128, ptr %15, align 16
  %146 = load i128, ptr %23, align 16
  %147 = mul i128 %145, %146
  %148 = add i128 %144, %147
  %149 = load i128, ptr %16, align 16
  %150 = load i128, ptr %22, align 16
  %151 = mul i128 %149, %150
  %152 = add i128 %148, %151
  %153 = load i128, ptr %21, align 16
  %154 = load i128, ptr %26, align 16
  %155 = mul i128 %153, %154
  %156 = add i128 %152, %155
  store i128 %156, ptr %11, align 16
  %157 = load i128, ptr %13, align 16
  %158 = load i128, ptr %26, align 16
  %159 = mul i128 %157, %158
  %160 = load i128, ptr %14, align 16
  %161 = load i128, ptr %25, align 16
  %162 = mul i128 %160, %161
  %163 = add i128 %159, %162
  %164 = load i128, ptr %15, align 16
  %165 = load i128, ptr %24, align 16
  %166 = mul i128 %164, %165
  %167 = add i128 %163, %166
  %168 = load i128, ptr %16, align 16
  %169 = load i128, ptr %23, align 16
  %170 = mul i128 %168, %169
  %171 = add i128 %167, %170
  %172 = load i128, ptr %17, align 16
  %173 = load i128, ptr %22, align 16
  %174 = mul i128 %172, %173
  %175 = add i128 %171, %174
  store i128 %175, ptr %12, align 16
  %176 = load i128, ptr %8, align 16
  %177 = trunc i128 %176 to i64
  %178 = and i64 %177, 2251799813685247
  store i64 %178, ptr %27, align 8
  %179 = load i128, ptr %8, align 16
  %180 = lshr i128 %179, 51
  %181 = trunc i128 %180 to i64
  store i64 %181, ptr %32, align 8
  %182 = load i64, ptr %32, align 8
  %183 = zext i64 %182 to i128
  %184 = load i128, ptr %9, align 16
  %185 = add i128 %184, %183
  store i128 %185, ptr %9, align 16
  %186 = load i128, ptr %9, align 16
  %187 = trunc i128 %186 to i64
  %188 = and i64 %187, 2251799813685247
  store i64 %188, ptr %28, align 8
  %189 = load i128, ptr %9, align 16
  %190 = lshr i128 %189, 51
  %191 = trunc i128 %190 to i64
  store i64 %191, ptr %32, align 8
  %192 = load i64, ptr %32, align 8
  %193 = zext i64 %192 to i128
  %194 = load i128, ptr %10, align 16
  %195 = add i128 %194, %193
  store i128 %195, ptr %10, align 16
  %196 = load i128, ptr %10, align 16
  %197 = trunc i128 %196 to i64
  %198 = and i64 %197, 2251799813685247
  store i64 %198, ptr %29, align 8
  %199 = load i128, ptr %10, align 16
  %200 = lshr i128 %199, 51
  %201 = trunc i128 %200 to i64
  store i64 %201, ptr %32, align 8
  %202 = load i64, ptr %32, align 8
  %203 = zext i64 %202 to i128
  %204 = load i128, ptr %11, align 16
  %205 = add i128 %204, %203
  store i128 %205, ptr %11, align 16
  %206 = load i128, ptr %11, align 16
  %207 = trunc i128 %206 to i64
  %208 = and i64 %207, 2251799813685247
  store i64 %208, ptr %30, align 8
  %209 = load i128, ptr %11, align 16
  %210 = lshr i128 %209, 51
  %211 = trunc i128 %210 to i64
  store i64 %211, ptr %32, align 8
  %212 = load i64, ptr %32, align 8
  %213 = zext i64 %212 to i128
  %214 = load i128, ptr %12, align 16
  %215 = add i128 %214, %213
  store i128 %215, ptr %12, align 16
  %216 = load i128, ptr %12, align 16
  %217 = trunc i128 %216 to i64
  %218 = and i64 %217, 2251799813685247
  store i64 %218, ptr %31, align 8
  %219 = load i128, ptr %12, align 16
  %220 = lshr i128 %219, 51
  %221 = trunc i128 %220 to i64
  store i64 %221, ptr %32, align 8
  %222 = load i64, ptr %32, align 8
  %223 = mul i64 19, %222
  %224 = load i64, ptr %27, align 8
  %225 = add i64 %224, %223
  store i64 %225, ptr %27, align 8
  %226 = load i64, ptr %27, align 8
  %227 = lshr i64 %226, 51
  store i64 %227, ptr %32, align 8
  %228 = load i64, ptr %27, align 8
  %229 = and i64 %228, 2251799813685247
  store i64 %229, ptr %27, align 8
  %230 = load i64, ptr %32, align 8
  %231 = load i64, ptr %28, align 8
  %232 = add i64 %231, %230
  store i64 %232, ptr %28, align 8
  %233 = load i64, ptr %28, align 8
  %234 = lshr i64 %233, 51
  store i64 %234, ptr %32, align 8
  %235 = load i64, ptr %28, align 8
  %236 = and i64 %235, 2251799813685247
  store i64 %236, ptr %28, align 8
  %237 = load i64, ptr %32, align 8
  %238 = load i64, ptr %29, align 8
  %239 = add i64 %238, %237
  store i64 %239, ptr %29, align 8
  %240 = load i64, ptr %27, align 8
  %241 = load ptr, ptr %4, align 8
  %242 = getelementptr i64, ptr %241, i64 0
  store i64 %240, ptr %242, align 8
  %243 = load i64, ptr %28, align 8
  %244 = load ptr, ptr %4, align 8
  %245 = getelementptr i64, ptr %244, i64 1
  store i64 %243, ptr %245, align 8
  %246 = load i64, ptr %29, align 8
  %247 = load ptr, ptr %4, align 8
  %248 = getelementptr i64, ptr %247, i64 2
  store i64 %246, ptr %248, align 8
  %249 = load i64, ptr %30, align 8
  %250 = load ptr, ptr %4, align 8
  %251 = getelementptr i64, ptr %250, i64 3
  store i64 %249, ptr %251, align 8
  %252 = load i64, ptr %31, align 8
  %253 = load ptr, ptr %4, align 8
  %254 = getelementptr i64, ptr %253, i64 4
  store i64 %252, ptr %254, align 8
  call void @llvm.lifetime.end.p0(i64 8, ptr %32) #8
  call void @llvm.lifetime.end.p0(i64 8, ptr %31) #8
  call void @llvm.lifetime.end.p0(i64 8, ptr %30) #8
  call void @llvm.lifetime.end.p0(i64 8, ptr %29) #8
  call void @llvm.lifetime.end.p0(i64 8, ptr %28) #8
  call void @llvm.lifetime.end.p0(i64 8, ptr %27) #8
  call void @llvm.lifetime.end.p0(i64 16, ptr %26) #8
  call void @llvm.lifetime.end.p0(i64 16, ptr %25) #8
  call void @llvm.lifetime.end.p0(i64 16, ptr %24) #8
  call void @llvm.lifetime.end.p0(i64 16, ptr %23) #8
  call void @llvm.lifetime.end.p0(i64 16, ptr %22) #8
  call void @llvm.lifetime.end.p0(i64 16, ptr %21) #8
  call void @llvm.lifetime.end.p0(i64 16, ptr %20) #8
  call void @llvm.lifetime.end.p0(i64 16, ptr %19) #8
  call void @llvm.lifetime.end.p0(i64 16, ptr %18) #8
  call void @llvm.lifetime.end.p0(i64 16, ptr %17) #8
  call void @llvm.lifetime.end.p0(i64 16, ptr %16) #8
  call void @llvm.lifetime.end.p0(i64 16, ptr %15) #8
  call void @llvm.lifetime.end.p0(i64 16, ptr %14) #8
  call void @llvm.lifetime.end.p0(i64 16, ptr %13) #8
  call void @llvm.lifetime.end.p0(i64 16, ptr %12) #8
  call void @llvm.lifetime.end.p0(i64 16, ptr %11) #8
  call void @llvm.lifetime.end.p0(i64 16, ptr %10) #8
  call void @llvm.lifetime.end.p0(i64 16, ptr %9) #8
  call void @llvm.lifetime.end.p0(i64 16, ptr %8) #8
  call void @llvm.lifetime.end.p0(i64 8, ptr %7) #8
  ret void
}